; Function Attrs: mustprogress nounwind uwtable
define dso_local void @_ZNK4llvm17MachineBasicBlock13liveout_beginEv(ptr dead_on_unwind noalias writable sret(%"class.llvm::MachineBasicBlock::liveout_iterator") align 8 %0, ptr noundef nonnull align 8 dereferenceable(288) %1) local_unnamed_addr #0 align 2 {
  %3 = getelementptr inbounds nuw i8, ptr %1, i64 32
  %4 = load ptr, ptr %3, align 8
  %5 = getelementptr inbounds nuw i8, ptr %4, i64 16
  %6 = load ptr, ptr %5, align 8
  %7 = load ptr, ptr %6, align 8
  %8 = getelementptr inbounds nuw i8, ptr %7, i64 144
  %9 = load ptr, ptr %8, align 8
  %10 = tail call noundef ptr %9(ptr noundef nonnull align 8 dereferenceable(288) %6) #29
  %11 = load ptr, ptr %4, align 8
  %12 = getelementptr inbounds nuw i8, ptr %11, i64 2
  %13 = load i16, ptr %12, align 2
  %14 = and i16 %13, 8
  %.not = icmp eq i16 %14, 0
  br i1 %.not, label %27, label %15

15:                                               ; preds = %2
  %16 = tail call noundef ptr @_ZNK4llvm8Function16getPersonalityFnEv(ptr noundef nonnull align 8 dereferenceable(136) %11) #29
  %17 = load ptr, ptr %10, align 8
  %18 = getelementptr inbounds nuw i8, ptr %17, i64 864
  %19 = load ptr, ptr %18, align 8
  %20 = tail call i32 %19(ptr noundef nonnull align 8 dereferenceable(408123) %10, ptr noundef %16) #29
  %21 = trunc i32 %20 to i16
  %22 = load ptr, ptr %10, align 8
  %23 = getelementptr inbounds nuw i8, ptr %22, i64 872
  %24 = load ptr, ptr %23, align 8
  %25 = tail call i32 %24(ptr noundef nonnull align 8 dereferenceable(408123) %10, ptr noundef %16) #29
  %26 = trunc i32 %25 to i16
  br label %27

27:                                               ; preds = %15, %2
  %.09 = phi i16 [ %26, %15 ], [ 0, %2 ]
  %.0 = phi i16 [ %21, %15 ], [ 0, %2 ]
  tail call void @_ZN4llvm17MachineBasicBlock16liveout_iteratorC2ERKS0_ttb(ptr noundef nonnull align 8 dereferenceable(32) %0, ptr noundef nonnull align 8 dereferenceable(288) %1, i16 noundef zeroext %.0, i16 noundef zeroext %.09, i1 noundef zeroext false)
  ret void
}